(dp0
S'image4.jpg'
p1
I01
sS'image5.jpg'
p2
I01
sS'image7.jpg'
p3
I01
sS'image10.jpg'
p4
I01
sS'image6.jpg'
p5
I01
sS'image9.jpg'
p6
I01
sS'image2.jpg'
p7
I01
sS'image1.jpg'
p8
I01
sS'image3.jpg'
p9
I01
sS'image8.jpg'
p10
I01
s.